Certificate:
    Data:
        Version: 3 (0x2)
        Serial Number: 10 (0xa)
    Signature Algorithm: sha256WithRSAEncryption
        Issuer: C=BR, ST=RJ, L=Rio, O=PUC, OU=INF1416, CN=AC INF1416/emailAddress=ca@grad.inf.puc-rio.br
        Validity
            Not Before: Apr 29 14:03:33 2022 GMT
            Not After : Apr 28 14:03:33 2025 GMT
        Subject: C=BR, ST=RJ, O=PUC, OU=INF1416, CN=Usuario 04/emailAddress=user04@inf1416.puc-rio.br
        Subject Public Key Info:
            Public Key Algorithm: rsaEncryption
                Public-Key: (2048 bit)
                Modulus:
                    00:c5:3c:51:51:ab:45:d2:ab:77:f4:0c:e8:2b:ee:
                    d1:8d:5e:a7:11:29:b1:c9:04:d6:05:2b:00:69:91:
                    ab:2c:2b:68:f9:9c:f9:ae:fc:39:ff:c7:d1:a3:ef:
                    54:b9:8c:1d:71:80:4f:6e:02:8b:06:a4:24:6a:ba:
                    4e:2f:61:aa:74:7a:94:b3:2c:87:aa:aa:4e:2a:00:
                    5c:f4:7c:bd:e7:83:bc:a1:ab:b5:fd:6d:2d:8b:b8:
                    f1:3e:e9:2e:bf:44:01:38:56:b0:02:b7:7c:89:8b:
                    9d:77:3b:c6:1d:f0:91:41:b2:db:6a:6b:d2:df:e8:
                    5e:15:38:6e:cd:65:6f:bc:55:de:c0:30:f4:55:d9:
                    c8:f4:3a:ba:21:1d:7b:30:41:2f:4a:71:e4:1d:ce:
                    16:55:1a:7e:96:75:aa:1e:79:09:31:09:6b:39:d0:
                    16:85:d1:7d:d0:ec:5c:19:43:0d:93:6b:5b:59:d6:
                    78:2f:c0:bb:60:7b:07:53:f9:42:bb:d2:3d:7e:8f:
                    8e:ac:dd:b7:7e:d0:47:69:40:f2:e0:2f:e2:bb:08:
                    b3:82:f0:86:61:a4:57:34:96:3b:fc:85:68:76:4d:
                    12:97:33:82:45:73:91:e3:22:e1:6e:48:45:9e:1a:
                    4e:4d:fa:5b:98:61:01:a4:cd:83:eb:74:53:15:db:
                    73:09
                Exponent: 65537 (0x10001)
        X509v3 extensions:
            X509v3 Basic Constraints: 
                CA:FALSE
            Netscape Comment: 
                OpenSSL Generated Certificate
            X509v3 Subject Key Identifier: 
                2C:F1:EC:48:5C:39:B4:FE:7C:79:88:D6:E0:08:64:6B:0D:1C:89:A9
            X509v3 Authority Key Identifier: 
                keyid:23:81:3B:C3:19:2B:95:99:D9:CA:EA:3B:6B:FE:1C:24:73:C2:82:8E

    Signature Algorithm: sha256WithRSAEncryption
         36:2c:15:e2:bf:7e:39:c7:36:14:03:1f:56:b1:36:90:96:80:
         b3:04:55:83:5f:78:f6:df:c4:ed:75:ed:26:03:fe:2a:67:29:
         d5:aa:3c:15:19:72:2d:75:5c:06:77:11:cf:c0:4c:0e:87:0a:
         a5:25:1c:4f:0a:fd:6e:e7:b5:0e:a5:70:33:21:67:c9:3f:81:
         34:7b:d1:17:49:a6:b6:ef:c8:2d:76:f6:2c:8d:9b:9b:3d:71:
         3e:47:c1:b6:7d:ca:23:af:28:71:ff:8a:fd:04:a8:f5:a1:ec:
         bc:34:83:84:cb:5e:ea:78:9c:51:62:1d:5d:1a:0a:7d:be:bf:
         87:ee:58:82:c4:5d:8d:ed:9e:c5:a5:77:25:03:c3:fb:7e:dd:
         91:72:24:c5:79:77:d8:1f:c7:2d:69:80:47:e5:b2:52:0f:ee:
         9b:87:fd:72:f1:b9:22:b2:93:7f:3b:e1:69:2e:cf:b9:d2:a0:
         0c:75:7f:e3:a7:22:c2:96:7d:56:ea:11:ab:83:9e:b9:75:e5:
         02:39:c6:a1:22:39:45:d8:ca:07:a0:75:bc:33:b3:ee:23:8b:
         61:82:d4:59:4b:78:75:07:ae:11:e3:16:50:aa:72:6e:3e:7e:
         75:ee:a7:9b:11:76:31:1e:54:02:98:03:27:87:e2:b5:80:08:
         e8:d7:15:03
-----BEGIN CERTIFICATE-----
MIID9DCCAtygAwIBAgIBCjANBgkqhkiG9w0BAQsFADCBhDELMAkGA1UEBhMCQlIx
CzAJBgNVBAgMAlJKMQwwCgYDVQQHDANSaW8xDDAKBgNVBAoMA1BVQzEQMA4GA1UE
CwwHSU5GMTQxNjETMBEGA1UEAwwKQUMgSU5GMTQxNjElMCMGCSqGSIb3DQEJARYW
Y2FAZ3JhZC5pbmYucHVjLXJpby5icjAeFw0yMjA0MjkxNDAzMzNaFw0yNTA0Mjgx
NDAzMzNaMHkxCzAJBgNVBAYTAkJSMQswCQYDVQQIDAJSSjEMMAoGA1UECgwDUFVD
MRAwDgYDVQQLDAdJTkYxNDE2MRMwEQYDVQQDDApVc3VhcmlvIDA0MSgwJgYJKoZI
hvcNAQkBFhl1c2VyMDRAaW5mMTQxNi5wdWMtcmlvLmJyMIIBIjANBgkqhkiG9w0B
AQEFAAOCAQ8AMIIBCgKCAQEAxTxRUatF0qt39AzoK+7RjV6nESmxyQTWBSsAaZGr
LCto+Zz5rvw5/8fRo+9UuYwdcYBPbgKLBqQkarpOL2GqdHqUsyyHqqpOKgBc9Hy9
54O8oau1/W0ti7jxPukuv0QBOFawArd8iYuddzvGHfCRQbLbamvS3+heFThuzWVv
vFXewDD0VdnI9Dq6IR17MEEvSnHkHc4WVRp+lnWqHnkJMQlrOdAWhdF90OxcGUMN
k2tbWdZ4L8C7YHsHU/lCu9I9fo+OrN23ftBHaUDy4C/iuwizgvCGYaRXNJY7/IVo
dk0SlzOCRXOR4yLhbkhFnhpOTfpbmGEBpM2D63RTFdtzCQIDAQABo3sweTAJBgNV
HRMEAjAAMCwGCWCGSAGG+EIBDQQfFh1PcGVuU1NMIEdlbmVyYXRlZCBDZXJ0aWZp
Y2F0ZTAdBgNVHQ4EFgQULPHsSFw5tP58eYjW4Ahkaw0ciakwHwYDVR0jBBgwFoAU
I4E7wxkrlZnZyuo7a/4cJHPCgo4wDQYJKoZIhvcNAQELBQADggEBADYsFeK/fjnH
NhQDH1axNpCWgLMEVYNfePbfxO117SYD/ipnKdWqPBUZci11XAZ3Ec/ATA6HCqUl
HE8K/W7ntQ6lcDMhZ8k/gTR70RdJprbvyC129iyNm5s9cT5HwbZ9yiOvKHH/iv0E
qPWh7Lw0g4TLXup4nFFiHV0aCn2+v4fuWILEXY3tnsWldyUDw/t+3ZFyJMV5d9gf
xy1pgEflslIP7puH/XLxuSKyk3874Wkuz7nSoAx1f+OnIsKWfVbqEauDnrl15QI5
xqEiOUXYygegdbwzs+4ji2GC1FlLeHUHrhHjFlCqcm4+fnXup5sRdjEeVAKYAyeH
4rWACOjXFQM=
-----END CERTIFICATE-----
